target datalayout = "e-m:e-p270:32:32-p271:32:32-p272:64:64-i64:64-i128:128-f80:128-n8:16:32:64-S128"
target triple = "x86_64-pc-linux-gnu"

%"struct.WasmEdge::Host::WASI::FdHolder" = type <{ i32, i8, [3 x i8] }>
%"struct.WasmEdge::Host::WASI::DirHolder" = type { ptr, i64, %"class.std::vector" }
%"class.std::vector" = type { %"struct.std::_Vector_base" }
%"struct.std::_Vector_base" = type { %"struct.std::_Vector_base<unsigned char, std::allocator<unsigned char>>::_Vector_impl" }
%"struct.std::_Vector_base<unsigned char, std::allocator<unsigned char>>::_Vector_impl" = type { %"struct.std::_Vector_base<unsigned char, std::allocator<unsigned char>>::_Vector_impl_data" }
%"struct.std::_Vector_base<unsigned char, std::allocator<unsigned char>>::_Vector_impl_data" = type { ptr, ptr, ptr }
%"class.WasmEdge::Host::WASI::INode" = type { %"struct.WasmEdge::Host::WASI::FdHolder.base", [3 x i8], %"class.std::optional.0", %"struct.WasmEdge::Host::WASI::DirHolder" }
%"struct.WasmEdge::Host::WASI::FdHolder.base" = type <{ i32, i8 }>
%"class.std::optional.0" = type { %"struct.std::_Optional_base.1" }
%"struct.std::_Optional_base.1" = type { %"struct.std::_Optional_payload.3" }
%"struct.std::_Optional_payload.3" = type { %"struct.std::_Optional_payload_base.base.5", [7 x i8] }
%"struct.std::_Optional_payload_base.base.5" = type <{ %"union.std::_Optional_payload_base<stat>::_Storage", i8 }>
%"union.std::_Optional_payload_base<stat>::_Storage" = type { %struct.stat }
%struct.stat = type { i64, i64, i64, i32, i32, i32, i32, i64, i64, i64, i64, %struct.timespec, %struct.timespec, %struct.timespec, [3 x i64] }
%struct.timespec = type { i64, i64 }
%"struct.std::_Optional_payload_base.4" = type <{ %"union.std::_Optional_payload_base<stat>::_Storage", i8, [7 x i8] }>

; Function Attrs: mustprogress nounwind uwtable
define linkonce_odr hidden void @_ZNSt15__new_allocatorIhEC2Ev(ptr noundef nonnull align 1 dereferenceable(1) %0) unnamed_addr #0 comdat align 2 {
  %2 = alloca ptr, align 8
  store ptr %0, ptr %2, align 8
  ret void
}

; Function Attrs: mustprogress nounwind uwtable
define linkonce_odr hidden void @_ZNSt12_Vector_baseIhSaIhEE17_Vector_impl_dataC2Ev(ptr noundef nonnull align 8 dereferenceable(24) %0) unnamed_addr #0 comdat align 2 {
  %2 = alloca ptr, align 8
  store ptr %0, ptr %2, align 8
  %3 = load ptr, ptr %2, align 8
  %4 = getelementptr inbounds %"struct.std::_Vector_base<unsigned char, std::allocator<unsigned char>>::_Vector_impl_data", ptr %3, i32 0, i32 0
  store ptr null, ptr %4, align 8
  %5 = getelementptr inbounds %"struct.std::_Vector_base<unsigned char, std::allocator<unsigned char>>::_Vector_impl_data", ptr %3, i32 0, i32 1
  store ptr null, ptr %5, align 8
  %6 = getelementptr inbounds %"struct.std::_Vector_base<unsigned char, std::allocator<unsigned char>>::_Vector_impl_data", ptr %3, i32 0, i32 2
  store ptr null, ptr %6, align 8
  ret void
}

; Function Attrs: mustprogress nounwind uwtable
define linkonce_odr hidden void @_ZNSaIhEC2Ev(ptr noundef nonnull align 1 dereferenceable(1) %0) unnamed_addr #0 comdat align 2 {
  %2 = alloca ptr, align 8
  store ptr %0, ptr %2, align 8
  %3 = load ptr, ptr %2, align 8
  call void @_ZNSt15__new_allocatorIhEC2Ev(ptr noundef nonnull align 1 dereferenceable(1) %3) #14
  ret void
}

; Function Attrs: mustprogress nounwind uwtable
define linkonce_odr hidden void @_ZNSt22_Optional_payload_baseI4statE8_StorageIS0_Lb1EEC2Ev(ptr noundef nonnull align 8 dereferenceable(144) %0) unnamed_addr #0 comdat align 2 {
  %2 = alloca ptr, align 8
  store ptr %0, ptr %2, align 8
  ret void
}

; Function Attrs: mustprogress nounwind uwtable
define linkonce_odr hidden void @_ZNSt12_Vector_baseIhSaIhEE12_Vector_implC2Ev(ptr noundef nonnull align 8 dereferenceable(24) %0) unnamed_addr #0 comdat align 2 {
  %2 = alloca ptr, align 8
  store ptr %0, ptr %2, align 8
  %3 = load ptr, ptr %2, align 8
  call void @_ZNSaIhEC2Ev(ptr noundef nonnull align 1 dereferenceable(1) %3) #14
  call void @_ZNSt12_Vector_baseIhSaIhEE17_Vector_impl_dataC2Ev(ptr noundef nonnull align 8 dereferenceable(24) %3) #14
  ret void
}

; Function Attrs: mustprogress nounwind uwtable
define linkonce_odr hidden void @_ZNSt22_Optional_payload_baseI4statEC2Ev(ptr noundef nonnull align 8 dereferenceable(145) %0) unnamed_addr #0 comdat align 2 {
  %2 = alloca ptr, align 8
  store ptr %0, ptr %2, align 8
  %3 = load ptr, ptr %2, align 8
  %4 = getelementptr inbounds %"struct.std::_Optional_payload_base.4", ptr %3, i32 0, i32 0
  call void @_ZNSt22_Optional_payload_baseI4statE8_StorageIS0_Lb1EEC2Ev(ptr noundef nonnull align 8 dereferenceable(144) %4) #14
  %5 = getelementptr inbounds %"struct.std::_Optional_payload_base.4", ptr %3, i32 0, i32 1
  store i8 0, ptr %5, align 8
  ret void
}

; Function Attrs: mustprogress nounwind uwtable
define linkonce_odr hidden void @_ZNSt12_Vector_baseIhSaIhEEC2Ev(ptr noundef nonnull align 8 dereferenceable(24) %0) unnamed_addr #0 comdat align 2 {
  %2 = alloca ptr, align 8
  store ptr %0, ptr %2, align 8
  %3 = load ptr, ptr %2, align 8
  %4 = getelementptr inbounds %"struct.std::_Vector_base", ptr %3, i32 0, i32 0
  call void @_ZNSt12_Vector_baseIhSaIhEE12_Vector_implC2Ev(ptr noundef nonnull align 8 dereferenceable(24) %4) #14
  ret void
}

; Function Attrs: mustprogress nounwind uwtable
define linkonce_odr hidden void @_ZNSt17_Optional_payloadI4statLb1ELb1ELb1EEC2Ev(ptr noundef nonnull align 8 dereferenceable(145) %0) unnamed_addr #0 comdat align 2 {
  %2 = alloca ptr, align 8
  store ptr %0, ptr %2, align 8
  %3 = load ptr, ptr %2, align 8
  call void @_ZNSt22_Optional_payload_baseI4statEC2Ev(ptr noundef nonnull align 8 dereferenceable(145) %3) #14
  ret void
}

; Function Attrs: mustprogress nounwind uwtable
define linkonce_odr hidden void @_ZNSt6vectorIhSaIhEEC2Ev(ptr noundef nonnull align 8 dereferenceable(24) %0) unnamed_addr #0 comdat align 2 {
  %2 = alloca ptr, align 8
  store ptr %0, ptr %2, align 8
  %3 = load ptr, ptr %2, align 8
  call void @_ZNSt12_Vector_baseIhSaIhEEC2Ev(ptr noundef nonnull align 8 dereferenceable(24) %3) #14
  ret void
}

; Function Attrs: mustprogress nounwind uwtable
define linkonce_odr hidden void @_ZNSt14_Optional_baseI4statLb1ELb1EEC2Ev(ptr noundef nonnull align 8 dereferenceable(152) %0) unnamed_addr #0 comdat align 2 {
  %2 = alloca ptr, align 8
  store ptr %0, ptr %2, align 8
  %3 = load ptr, ptr %2, align 8
  %4 = getelementptr inbounds %"struct.std::_Optional_base.1", ptr %3, i32 0, i32 0
  call void @_ZNSt17_Optional_payloadI4statLb1ELb1ELb1EEC2Ev(ptr noundef nonnull align 8 dereferenceable(145) %4) #14
  ret void
}

; Function Attrs: mustprogress nounwind uwtable
define linkonce_odr hidden void @_ZN8WasmEdge4Host4WASI9DirHolderC2Ev(ptr noundef nonnull align 8 dereferenceable(40) %0) unnamed_addr #0 comdat align 2 {
  %2 = alloca ptr, align 8
  store ptr %0, ptr %2, align 8
  %3 = load ptr, ptr %2, align 8
  %4 = getelementptr inbounds %"struct.WasmEdge::Host::WASI::DirHolder", ptr %3, i32 0, i32 0
  store ptr null, ptr %4, align 8
  %5 = getelementptr inbounds %"struct.WasmEdge::Host::WASI::DirHolder", ptr %3, i32 0, i32 1
  store i64 0, ptr %5, align 8
  %6 = getelementptr inbounds %"struct.WasmEdge::Host::WASI::DirHolder", ptr %3, i32 0, i32 2
  call void @_ZNSt6vectorIhSaIhEEC2Ev(ptr noundef nonnull align 8 dereferenceable(24) %6) #14
  ret void
}

; Function Attrs: mustprogress nounwind uwtable
define linkonce_odr hidden void @_ZNSt8optionalI4statEC2Ev(ptr noundef nonnull align 8 dereferenceable(152) %0) unnamed_addr #0 comdat align 2 {
  %2 = alloca ptr, align 8
  store ptr %0, ptr %2, align 8
  %3 = load ptr, ptr %2, align 8
  call void @_ZNSt14_Optional_baseI4statLb1ELb1EEC2Ev(ptr noundef nonnull align 8 dereferenceable(152) %3) #14
  ret void
}

; Function Attrs: mustprogress nounwind uwtable
define linkonce_odr hidden void @_ZN8WasmEdge4Host4WASI8FdHolderC2Eibb(ptr noundef nonnull align 4 dereferenceable(5) %0, i32 noundef %1, i1 noundef zeroext %2, i1 noundef zeroext %3) unnamed_addr #0 comdat align 2 {
  %5 = alloca ptr, align 8
  %6 = alloca i32, align 4
  %7 = alloca i8, align 1
  %8 = alloca i8, align 1
  store ptr %0, ptr %5, align 8
  store i32 %1, ptr %6, align 4
  %9 = zext i1 %2 to i8
  store i8 %9, ptr %7, align 1
  %10 = zext i1 %3 to i8
  store i8 %10, ptr %8, align 1
  %11 = load ptr, ptr %5, align 8
  %12 = getelementptr inbounds %"struct.WasmEdge::Host::WASI::FdHolder", ptr %11, i32 0, i32 0
  %13 = load i32, ptr %6, align 4
  store i32 %13, ptr %12, align 4
  %14 = getelementptr inbounds %"struct.WasmEdge::Host::WASI::FdHolder", ptr %11, i32 0, i32 1
  %15 = load i8, ptr %7, align 1
  %16 = trunc i8 %15 to i1
  %17 = zext i1 %16 to i8
  %18 = load i8, ptr %14, align 4
  %19 = and i8 %18, -2
  %20 = or i8 %19, %17
  store i8 %20, ptr %14, align 4
  %21 = getelementptr inbounds %"struct.WasmEdge::Host::WASI::FdHolder", ptr %11, i32 0, i32 1
  %22 = load i8, ptr %8, align 1
  %23 = trunc i8 %22 to i1
  %24 = zext i1 %23 to i8
  %25 = load i8, ptr %21, align 4
  %26 = shl i8 %24, 1
  %27 = and i8 %25, -3
  %28 = or i8 %27, %26
  store i8 %28, ptr %21, align 4
  ret void
}

; Function Attrs: mustprogress nounwind uwtable
define linkonce_odr hidden void @_ZN8WasmEdge4Host4WASI5INodeCI2NS1_8FdHolderEEibb(ptr noundef nonnull align 8 dereferenceable(200) %0, i32 noundef %1, i1 noundef zeroext %2, i1 noundef zeroext %3) unnamed_addr #0 comdat align 2 {
  %5 = alloca ptr, align 8
  %6 = alloca i32, align 4
  %7 = alloca i8, align 1
  %8 = alloca i8, align 1
  store ptr %0, ptr %5, align 8
  store i32 %1, ptr %6, align 4
  %9 = zext i1 %2 to i8
  store i8 %9, ptr %7, align 1
  %10 = zext i1 %3 to i8
  store i8 %10, ptr %8, align 1
  %11 = load ptr, ptr %5, align 8
  %12 = load i32, ptr %6, align 4
  %13 = load i8, ptr %7, align 1
  %14 = trunc i8 %13 to i1
  %15 = load i8, ptr %8, align 1
  %16 = trunc i8 %15 to i1
  call void @_ZN8WasmEdge4Host4WASI8FdHolderC2Eibb(ptr noundef nonnull align 4 dereferenceable(5) %11, i32 noundef %12, i1 noundef zeroext %14, i1 noundef zeroext %16) #14
  %17 = getelementptr inbounds %"class.WasmEdge::Host::WASI::INode", ptr %11, i32 0, i32 2
  call void @_ZNSt8optionalI4statEC2Ev(ptr noundef nonnull align 8 dereferenceable(152) %17) #14
  %18 = getelementptr inbounds %"class.WasmEdge::Host::WASI::INode", ptr %11, i32 0, i32 3
  call void @_ZN8WasmEdge4Host4WASI9DirHolderC2Ev(ptr noundef nonnull align 8 dereferenceable(40) %18) #14
  ret void
}

; Function Attrs: mustprogress nounwind uwtable
define void @_ZN8WasmEdge4Host4WASI5INode6stdOutEv(ptr dead_on_unwind noalias writable sret(%"class.WasmEdge::Host::WASI::INode") align 8 %0) #0 align 2 {
  %2 = alloca ptr, align 8
  store ptr %0, ptr %2, align 8
  call void @_ZN8WasmEdge4Host4WASI5INodeCI2NS1_8FdHolderEEibb(ptr noundef nonnull align 8 dereferenceable(200) %0, i32 noundef 1, i1 noundef zeroext true, i1 noundef zeroext false) #14
  ret void
}